
../asm/fib_print:     file format elf64-littleriscv


Disassembly of section .plt:

0000000000010430 <_PROCEDURE_LINKAGE_TABLE_>:
   10430:	00002397          	auipc	t2,0x2
   10434:	41c30333          	sub	t1,t1,t3
   10438:	bc03be03          	ld	t3,-1088(t2) # 11ff0 <.got.plt>
   1043c:	fd430313          	addi	t1,t1,-44
   10440:	bc038293          	addi	t0,t2,-1088
   10444:	00135313          	srli	t1,t1,0x1
   10448:	0082b283          	ld	t0,8(t0)
   1044c:	000e0067          	jr	t3 # 1a000 <__global_pointer$+0x77f0>

0000000000010450 <__libc_start_main@plt>:
   10450:	00002e17          	auipc	t3,0x2
   10454:	bb0e3e03          	ld	t3,-1104(t3) # 12000 <__libc_start_main@GLIBC_2.34>
   10458:	000e0367          	jalr	t1,t3
   1045c:	00000013          	nop

0000000000010460 <printf@plt>:
   10460:	00002e17          	auipc	t3,0x2
   10464:	ba8e3e03          	ld	t3,-1112(t3) # 12008 <printf@GLIBC_2.27>
   10468:	000e0367          	jalr	t1,t3
   1046c:	00000013          	nop

Disassembly of section .text:

0000000000010470 <_start>:
   10470:	024000ef          	jal	10494 <load_gp>
   10474:	87aa                	mv	a5,a0
   10476:	00000517          	auipc	a0,0x0
   1047a:	01c50513          	addi	a0,a0,28 # 10492 <__wrap_main>
   1047e:	6582                	ld	a1,0(sp)
   10480:	0030                	addi	a2,sp,8
   10482:	ff017113          	andi	sp,sp,-16
   10486:	4681                	li	a3,0
   10488:	4701                	li	a4,0
   1048a:	880a                	mv	a6,sp
   1048c:	fc5ff0ef          	jal	10450 <__libc_start_main@plt>
   10490:	9002                	ebreak

0000000000010492 <__wrap_main>:
   10492:	a8c1                	j	10562 <main>

0000000000010494 <load_gp>:
   10494:	00002197          	auipc	gp,0x2
   10498:	37c18193          	addi	gp,gp,892 # 12810 <__global_pointer$>
   1049c:	8082                	ret
	...

00000000000104a0 <deregister_tm_clones>:
   104a0:	6549                	lui	a0,0x12
   104a2:	6749                	lui	a4,0x12
   104a4:	01050793          	addi	a5,a0,16 # 12010 <__TMC_END__>
   104a8:	01070713          	addi	a4,a4,16 # 12010 <__TMC_END__>
   104ac:	00f70863          	beq	a4,a5,104bc <deregister_tm_clones+0x1c>
   104b0:	00000793          	li	a5,0
   104b4:	c781                	beqz	a5,104bc <deregister_tm_clones+0x1c>
   104b6:	01050513          	addi	a0,a0,16
   104ba:	8782                	jr	a5
   104bc:	8082                	ret

00000000000104be <register_tm_clones>:
   104be:	6549                	lui	a0,0x12
   104c0:	01050793          	addi	a5,a0,16 # 12010 <__TMC_END__>
   104c4:	6749                	lui	a4,0x12
   104c6:	01070593          	addi	a1,a4,16 # 12010 <__TMC_END__>
   104ca:	8d9d                	sub	a1,a1,a5
   104cc:	4035d793          	srai	a5,a1,0x3
   104d0:	91fd                	srli	a1,a1,0x3f
   104d2:	95be                	add	a1,a1,a5
   104d4:	8585                	srai	a1,a1,0x1
   104d6:	c599                	beqz	a1,104e4 <register_tm_clones+0x26>
   104d8:	00000793          	li	a5,0
   104dc:	c781                	beqz	a5,104e4 <register_tm_clones+0x26>
   104de:	01050513          	addi	a0,a0,16
   104e2:	8782                	jr	a5
   104e4:	8082                	ret

00000000000104e6 <__do_global_dtors_aux>:
   104e6:	1141                	addi	sp,sp,-16
   104e8:	e022                	sd	s0,0(sp)
   104ea:	6449                	lui	s0,0x12
   104ec:	01844783          	lbu	a5,24(s0) # 12018 <completed.0>
   104f0:	e406                	sd	ra,8(sp)
   104f2:	e791                	bnez	a5,104fe <__do_global_dtors_aux+0x18>
   104f4:	fadff0ef          	jal	104a0 <deregister_tm_clones>
   104f8:	4785                	li	a5,1
   104fa:	00f40c23          	sb	a5,24(s0)
   104fe:	60a2                	ld	ra,8(sp)
   10500:	6402                	ld	s0,0(sp)
   10502:	0141                	addi	sp,sp,16
   10504:	8082                	ret

0000000000010506 <frame_dummy>:
   10506:	bf65                	j	104be <register_tm_clones>

0000000000010508 <fib>:
   10508:	7179                	addi	sp,sp,-48
   1050a:	f406                	sd	ra,40(sp)
   1050c:	f022                	sd	s0,32(sp)
   1050e:	ec26                	sd	s1,24(sp)
   10510:	1800                	addi	s0,sp,48
   10512:	87aa                	mv	a5,a0
   10514:	fcf42e23          	sw	a5,-36(s0)
   10518:	fdc42783          	lw	a5,-36(s0)
   1051c:	0007871b          	sext.w	a4,a5
   10520:	4785                	li	a5,1
   10522:	00e7e563          	bltu	a5,a4,1052c <fib+0x24>
   10526:	fdc42783          	lw	a5,-36(s0)
   1052a:	a035                	j	10556 <fib+0x4e>
   1052c:	fdc42783          	lw	a5,-36(s0)
   10530:	37fd                	addiw	a5,a5,-1
   10532:	2781                	sext.w	a5,a5
   10534:	853e                	mv	a0,a5
   10536:	fd3ff0ef          	jal	10508 <fib>
   1053a:	87aa                	mv	a5,a0
   1053c:	0007849b          	sext.w	s1,a5
   10540:	fdc42783          	lw	a5,-36(s0)
   10544:	37f9                	addiw	a5,a5,-2
   10546:	2781                	sext.w	a5,a5
   10548:	853e                	mv	a0,a5
   1054a:	fbfff0ef          	jal	10508 <fib>
   1054e:	87aa                	mv	a5,a0
   10550:	2781                	sext.w	a5,a5
   10552:	9fa5                	addw	a5,a5,s1
   10554:	2781                	sext.w	a5,a5
   10556:	853e                	mv	a0,a5
   10558:	70a2                	ld	ra,40(sp)
   1055a:	7402                	ld	s0,32(sp)
   1055c:	64e2                	ld	s1,24(sp)
   1055e:	6145                	addi	sp,sp,48
   10560:	8082                	ret

0000000000010562 <main>:
   10562:	7179                	addi	sp,sp,-48
   10564:	f406                	sd	ra,40(sp)
   10566:	f022                	sd	s0,32(sp)
   10568:	1800                	addi	s0,sp,48
   1056a:	87aa                	mv	a5,a0
   1056c:	fcb43823          	sd	a1,-48(s0)
   10570:	fcf42e23          	sw	a5,-36(s0)
   10574:	4515                	li	a0,5
   10576:	f93ff0ef          	jal	10508 <fib>
   1057a:	87aa                	mv	a5,a0
   1057c:	fef42623          	sw	a5,-20(s0)
   10580:	9002                	ebreak
   10582:	4529                	li	a0,10
   10584:	f85ff0ef          	jal	10508 <fib>
   10588:	87aa                	mv	a5,a0
   1058a:	fef42423          	sw	a5,-24(s0)
   1058e:	fe842783          	lw	a5,-24(s0)
   10592:	85be                	mv	a1,a5
   10594:	67c1                	lui	a5,0x10
   10596:	5b878513          	addi	a0,a5,1464 # 105b8 <_IO_stdin_used+0x8>
   1059a:	ec7ff0ef          	jal	10460 <printf@plt>
   1059e:	9002                	ebreak
   105a0:	4781                	li	a5,0
   105a2:	853e                	mv	a0,a5
   105a4:	70a2                	ld	ra,40(sp)
   105a6:	7402                	ld	s0,32(sp)
   105a8:	6145                	addi	sp,sp,48
   105aa:	8082                	ret
